target datalayout = "e-m:e-p270:32:32-p271:32:32-p272:64:64-i64:64-i128:128-f80:128-n8:16:32:64-S128"
target triple = "x86_64-pc-linux-gnu"

%struct.passwd = type { ptr, ptr, i32, i32, ptr, ptr, ptr }

@.str.19 = private unnamed_addr constant [5 x i8] c"HOME\00", align 1

; Function Attrs: nounwind uwtable
define dso_local zeroext i1 @get_home_path(ptr noundef %0) #0 {
  %2 = alloca i1, align 1
  %3 = alloca ptr, align 8
  %4 = alloca ptr, align 8
  %5 = alloca i32, align 4
  %6 = alloca %struct.passwd, align 8
  %7 = alloca ptr, align 8
  %8 = alloca [1024 x i8], align 16
  %9 = alloca i32, align 4
  store ptr %0, ptr %3, align 8
  call void @llvm.lifetime.start.p0(i64 8, ptr %4) #10
  %10 = call ptr @getenv(ptr noundef @.str.19) #10
  store ptr %10, ptr %4, align 8
  %11 = load ptr, ptr %4, align 8
  %12 = icmp ne ptr %11, null
  br i1 %12, label %13, label %23

13:                                               ; preds = %1
  %14 = load ptr, ptr %4, align 8
  %15 = getelementptr inbounds i8, ptr %14, i64 0
  %16 = load i8, ptr %15, align 1
  %17 = sext i8 %16 to i32
  %18 = icmp ne i32 %17, 0
  br i1 %18, label %19, label %23

19:                                               ; preds = %13
  %20 = load ptr, ptr %3, align 8
  %21 = load ptr, ptr %4, align 8
  %22 = call i64 @strlcpy(ptr noundef %20, ptr noundef %21, i64 noundef 1024)
  store i1 true, ptr %2, align 1
  store i32 1, ptr %5, align 4
  br label %40

23:                                               ; preds = %13, %1
  call void @llvm.lifetime.start.p0(i64 48, ptr %6) #10
  call void @llvm.lifetime.start.p0(i64 8, ptr %7) #10
  call void @llvm.lifetime.start.p0(i64 1024, ptr %8) #10
  call void @llvm.lifetime.start.p0(i64 4, ptr %9) #10
  %24 = call i32 @geteuid() #10
  %25 = getelementptr inbounds [1024 x i8], ptr %8, i64 0, i64 0
  %26 = call i32 @getpwuid_r(i32 noundef %24, ptr noundef %6, ptr noundef %25, i64 noundef 1024, ptr noundef %7)
  store i32 %26, ptr %9, align 4
  %27 = load i32, ptr %9, align 4
  %28 = icmp ne i32 %27, 0
  br i1 %28, label %32, label %29

29:                                               ; preds = %23
  %30 = load ptr, ptr %7, align 8
  %31 = icmp ne ptr %30, null
  br i1 %31, label %33, label %32

32:                                               ; preds = %29, %23
  store i1 false, ptr %2, align 1
  store i32 1, ptr %5, align 4
  br label %39

33:                                               ; preds = %29
  %34 = load ptr, ptr %3, align 8
  %35 = load ptr, ptr %7, align 8
  %36 = getelementptr inbounds nuw %struct.passwd, ptr %35, i32 0, i32 5
  %37 = load ptr, ptr %36, align 8
  %38 = call i64 @strlcpy(ptr noundef %34, ptr noundef %37, i64 noundef 1024)
  store i1 true, ptr %2, align 1
  store i32 1, ptr %5, align 4
  br label %39

39:                                               ; preds = %33, %32
  call void @llvm.lifetime.end.p0(i64 4, ptr %9) #10
  call void @llvm.lifetime.end.p0(i64 1024, ptr %8) #10
  call void @llvm.lifetime.end.p0(i64 8, ptr %7) #10
  call void @llvm.lifetime.end.p0(i64 48, ptr %6) #10
  br label %40

40:                                               ; preds = %39, %19
  call void @llvm.lifetime.end.p0(i64 8, ptr %4) #10
  %41 = load i1, ptr %2, align 1
  ret i1 %41
}