; Function Attrs: nounwind uwtable
define dso_local noundef zeroext i1 @get_home_path(ptr noundef %0) local_unnamed_addr #3 {
  %2 = alloca %struct.passwd, align 8
  %3 = alloca ptr, align 8
  %4 = alloca [1024 x i8], align 16
  %5 = tail call ptr @getenv(ptr noundef nonnull @.str.19) #21
  %.not = icmp eq ptr %5, null
  br i1 %.not, label %10, label %6

6:                                                ; preds = %1
  %7 = load i8, ptr %5, align 1
  %.not9 = icmp eq i8 %7, 0
  br i1 %.not9, label %10, label %8

8:                                                ; preds = %6
  %9 = tail call i64 @strlcpy(ptr noundef nonnull dereferenceable(1) %0, ptr noundef nonnull dereferenceable(1) %5, i64 noundef 1024) #21
  br label %21

10:                                               ; preds = %6, %1
  call void @llvm.lifetime.start.p0(i64 48, ptr nonnull %2) #21
  call void @llvm.lifetime.start.p0(i64 8, ptr nonnull %3) #21
  call void @llvm.lifetime.start.p0(i64 1024, ptr nonnull %4) #21
  %11 = tail call i32 @geteuid() #21
  %12 = call i32 @getpwuid_r(i32 noundef %11, ptr noundef nonnull %2, ptr noundef nonnull %4, i64 noundef 1024, ptr noundef nonnull %3) #21
  %13 = icmp eq i32 %12, 0
  %14 = load ptr, ptr %3, align 8
  %15 = icmp ne ptr %14, null
  %or.cond = select i1 %13, i1 %15, i1 false
  br i1 %or.cond, label %16, label %20

16:                                               ; preds = %10
  %17 = getelementptr inbounds nuw i8, ptr %14, i64 32
  %18 = load ptr, ptr %17, align 8
  %19 = call i64 @strlcpy(ptr noundef nonnull dereferenceable(1) %0, ptr noundef nonnull dereferenceable(1) %18, i64 noundef 1024) #21
  br label %20

20:                                               ; preds = %10, %16
  call void @llvm.lifetime.end.p0(i64 1024, ptr nonnull %4) #21
  call void @llvm.lifetime.end.p0(i64 8, ptr nonnull %3) #21
  call void @llvm.lifetime.end.p0(i64 48, ptr nonnull %2) #21
  br label %21

21:                                               ; preds = %20, %8
  %.0 = phi i1 [ true, %8 ], [ %or.cond, %20 ]
  ret i1 %.0
}